Certificate:
    Data:
        Version: 3 (0x2)
        Serial Number:
            bb:3b:86:5e:db:01:28:c1
    Signature Algorithm: sha256WithRSAEncryption
        Issuer: CN=localhost
        Validity
            Not Before: Sep 20 20:31:42 2018 GMT
            Not After : Oct 20 20:31:42 2018 GMT
        Subject: CN=localhost
        Subject Public Key Info:
            Public Key Algorithm: rsaEncryption
                Public-Key: (2048 bit)
                Modulus:
                    00:cc:f8:b8:a0:d0:50:5f:3b:ce:d0:1d:79:e1:d1:
                    ee:5f:0b:6a:c3:56:67:c4:82:c7:38:ac:28:a9:7f:
                    d7:56:12:10:d0:b0:4e:75:3e:ac:f0:7b:b5:e2:b2:
                    8d:b2:80:6f:44:15:db:48:2b:1d:29:52:48:31:ae:
                    d6:50:00:b2:11:a0:f0:ca:22:ca:eb:16:c6:c6:a8:
                    db:7d:cc:95:f1:6d:a1:bf:22:25:db:a0:0f:34:01:
                    6e:4b:cd:9c:0c:3c:0d:4c:d7:65:25:01:17:e4:03:
                    33:e2:a2:dc:f0:ae:72:6c:ef:8a:c1:18:c6:39:df:
                    f7:10:2f:cb:45:78:e2:8d:90:74:4d:ac:a7:f0:7f:
                    2d:a5:15:cb:a2:27:63:f9:a2:8f:e0:d8:35:50:85:
                    8b:81:15:44:43:da:fb:c2:dc:de:c4:f5:61:7f:17:
                    67:30:d2:b3:fc:59:d5:ec:f3:58:bb:a1:68:53:6f:
                    be:4d:dc:48:d5:6c:e5:be:03:c6:d6:3c:e4:c5:28:
                    39:6e:f0:e9:71:59:e8:0b:23:b4:37:3d:ca:8f:de:
                    8a:d6:1b:e5:97:30:ea:69:c0:31:69:a0:33:19:57:
                    63:04:07:a0:3b:7c:fc:fb:49:63:c2:84:79:66:7d:
                    7d:1e:55:5d:89:ee:8b:7d:3d:bd:f0:0f:67:7c:e7:
                    df:45
                Exponent: 65537 (0x10001)
        X509v3 extensions:
            X509v3 Subject Key Identifier: 
                A2:6B:97:06:6E:85:96:1E:5D:1B:E1:67:C5:3B:8B:9F:80:4D:11:8A
            X509v3 Authority Key Identifier: 
                keyid:A2:6B:97:06:6E:85:96:1E:5D:1B:E1:67:C5:3B:8B:9F:80:4D:11:8A

            X509v3 Basic Constraints: 
                CA:TRUE
    Signature Algorithm: sha256WithRSAEncryption
         64:8b:d9:16:3f:5e:57:3d:da:1e:c6:f5:9e:0d:34:fa:45:43:
         56:62:93:47:03:3f:d2:32:e4:fa:3a:be:af:10:a1:1f:25:49:
         9d:2a:e2:29:c8:24:e5:d4:78:a9:91:e5:8a:1a:4a:2f:a6:1d:
         83:12:c4:93:7a:3d:71:fb:83:52:b2:e5:6e:01:de:a9:e8:67:
         ca:3f:6e:2a:69:a5:f8:ac:09:3c:06:14:58:58:9b:39:0b:8d:
         df:87:47:45:e2:b2:78:59:00:74:94:ab:64:62:cf:98:f5:4e:
         16:27:68:4e:bc:7e:f6:5d:ce:75:57:01:d5:32:7a:2d:45:47:
         cf:57:12:c5:9a:68:67:80:e1:4f:93:21:ae:1c:8c:72:c1:e9:
         40:0b:d7:b0:83:9c:b1:95:67:d6:19:c2:2c:6c:d1:61:bf:fc:
         75:28:be:eb:9c:80:ac:4c:e7:3c:78:a3:05:bb:01:e8:a1:b8:
         0a:f3:15:f9:20:ee:e1:f3:04:4e:41:4e:26:38:c2:ea:53:70:
         25:d8:58:8a:c1:73:8d:b1:27:9c:68:e7:75:3f:28:27:1d:af:
         bf:99:7d:9f:45:ba:e3:a9:a4:77:35:78:df:ab:a6:bf:f2:f5:
         50:99:ff:49:ba:0c:ba:55:1e:2a:9f:cc:e2:15:b8:57:38:58:
         14:62:92:c5
-----BEGIN CERTIFICATE-----
MIIC+zCCAeOgAwIBAgIJALs7hl7bASjBMA0GCSqGSIb3DQEBCwUAMBQxEjAQBgNV
BAMMCWxvY2FsaG9zdDAeFw0xODA5MjAyMDMxNDJaFw0xODEwMjAyMDMxNDJaMBQx
EjAQBgNVBAMMCWxvY2FsaG9zdDCCASIwDQYJKoZIhvcNAQEBBQADggEPADCCAQoC
ggEBAMz4uKDQUF87ztAdeeHR7l8LasNWZ8SCxzisKKl/11YSENCwTnU+rPB7teKy
jbKAb0QV20grHSlSSDGu1lAAshGg8MoiyusWxsao233MlfFtob8iJdugDzQBbkvN
nAw8DUzXZSUBF+QDM+Ki3PCucmzvisEYxjnf9xAvy0V44o2QdE2sp/B/LaUVy6In
Y/mij+DYNVCFi4EVREPa+8Lc3sT1YX8XZzDSs/xZ1ezzWLuhaFNvvk3cSNVs5b4D
xtY85MUoOW7w6XFZ6AsjtDc9yo/eitYb5Zcw6mnAMWmgMxlXYwQHoDt8/PtJY8KE
eWZ9fR5VXYnui309vfAPZ3zn30UCAwEAAaNQME4wHQYDVR0OBBYEFKJrlwZuhZYe
XRvhZ8U7i5+ATRGKMB8GA1UdIwQYMBaAFKJrlwZuhZYeXRvhZ8U7i5+ATRGKMAwG
A1UdEwQFMAMBAf8wDQYJKoZIhvcNAQELBQADggEBAGSL2RY/Xlc92h7G9Z4NNPpF
Q1Zik0cDP9Iy5Po6vq8QoR8lSZ0q4inIJOXUeKmR5YoaSi+mHYMSxJN6PXH7g1Ky
5W4B3qnoZ8o/bipppfisCTwGFFhYmzkLjd+HR0XisnhZAHSUq2Riz5j1ThYnaE68
fvZdznVXAdUyei1FR89XEsWaaGeA4U+TIa4cjHLB6UAL17CDnLGVZ9YZwixs0WG/
/HUovuucgKxM5zx4owW7AeihuArzFfkg7uHzBE5BTiY4wupTcCXYWIrBc42xJ5xo
53U/KCcdr7+ZfZ9FuuOppHc1eN+rpr/y9VCZ/0m6DLpVHiqfzOIVuFc4WBRiksU=
-----END CERTIFICATE-----
